target datalayout = "e-m:e-p270:32:32-p271:32:32-p272:64:64-i64:64-i128:128-f80:128-n8:16:32:64-S128"
target triple = "x86_64-pc-linux-gnu"

%struct.Dar_RefPar_t_ = type { i32, i32, i32, i32, i32, i32, i32, i32 }
%struct.Gia_ManTranStochParam = type { ptr, i32, i32, i32, i32, i32, i32, i32, i32, i32, i32, i32, ptr, i32, i32, i32, ptr, i32, ptr }
%struct.Gia_Man_t_ = type { ptr, ptr, i32, i32, i32, i32, ptr, ptr, i32, i32, i32, ptr, ptr, %struct.Vec_Int_t_, %struct.Vec_Int_t_, i32, i32, i32, %struct.Vec_Int_t_, ptr, ptr, ptr, i32, i32, i32, i32, ptr, ptr, ptr, ptr, ptr, i32, i32, ptr, i32, ptr, ptr, ptr, ptr, ptr, ptr, ptr, ptr, ptr, ptr, ptr, ptr, ptr, ptr, ptr, ptr, ptr, ptr, %struct.Vec_Int_t_, %struct.Vec_Int_t_, ptr, ptr, ptr, ptr, ptr, ptr, ptr, ptr, ptr, ptr, ptr, ptr, ptr, ptr, ptr, ptr, ptr, ptr, ptr, ptr, ptr, i32, float, float, ptr, ptr, i32, ptr, ptr, ptr, ptr, ptr, ptr, ptr, ptr, ptr, ptr, ptr, ptr, ptr, ptr, ptr, i64, i64, ptr, ptr, i32, i32, i32, i32, i32, i32, i32, i32, i32, i32, i32, i32, ptr, ptr, ptr, ptr, ptr, ptr, ptr, ptr, i32, i32, i32, ptr, i32, i32, ptr, ptr, ptr, ptr, ptr, ptr, i32, i32, ptr, %struct.Vec_Int_t_, %struct.Vec_Int_t_, %struct.Vec_Int_t_, ptr, ptr, ptr, i32, i32, i32, i32, ptr, ptr, ptr, ptr, ptr }
%struct.Vec_Int_t_ = type { i32, i32, ptr }

@.str = private unnamed_addr constant [40 x i8] c"*                ite %d : #nodes = %5d\0A\00", align 1

; Function Attrs: inlinehint nounwind uwtable
define internal i32 @Vec_IntSize(ptr noundef %0) #4 {
  %2 = alloca ptr, align 8
  store ptr %0, ptr %2, align 8, !tbaa !108
  %3 = load ptr, ptr %2, align 8, !tbaa !108
  %4 = getelementptr inbounds nuw %struct.Vec_Int_t_, ptr %3, i32 0, i32 1
  %5 = load i32, ptr %4, align 4, !tbaa !109
  ret i32 %5
}

; Function Attrs: nounwind uwtable
define void @Gia_ManTranStochUnlock(ptr noundef %0) #0 {
  %2 = alloca ptr, align 8
  store ptr %0, ptr %2, align 8, !tbaa !40
  %3 = load ptr, ptr %2, align 8, !tbaa !40
  %4 = getelementptr inbounds nuw %struct.Gia_ManTranStochParam, ptr %3, i32 0, i32 17
  %5 = load i32, ptr %4, align 8, !tbaa !42
  %6 = icmp ne i32 %5, 0
  br i1 %6, label %7, label %12

7:                                                ; preds = %1
  %8 = load ptr, ptr %2, align 8, !tbaa !40
  %9 = getelementptr inbounds nuw %struct.Gia_ManTranStochParam, ptr %8, i32 0, i32 18
  %10 = load ptr, ptr %9, align 8, !tbaa !44
  %11 = call i32 @pthread_mutex_unlock(ptr noundef %10) #10
  br label %12

12:                                               ; preds = %7, %1
  ret void
}

; Function Attrs: nounwind uwtable
define void @Gia_ManTranStochLock(ptr noundef %0) #0 {
  %2 = alloca ptr, align 8
  store ptr %0, ptr %2, align 8, !tbaa !40
  %3 = load ptr, ptr %2, align 8, !tbaa !40
  %4 = getelementptr inbounds nuw %struct.Gia_ManTranStochParam, ptr %3, i32 0, i32 17
  %5 = load i32, ptr %4, align 8, !tbaa !42
  %6 = icmp ne i32 %5, 0
  br i1 %6, label %7, label %12

7:                                                ; preds = %1
  %8 = load ptr, ptr %2, align 8, !tbaa !40
  %9 = getelementptr inbounds nuw %struct.Gia_ManTranStochParam, ptr %8, i32 0, i32 18
  %10 = load ptr, ptr %9, align 8, !tbaa !44
  %11 = call i32 @pthread_mutex_lock(ptr noundef %10) #10
  br label %12

12:                                               ; preds = %7, %1
  ret void
}

; Function Attrs: nounwind uwtable
define ptr @Gia_ManTranStochRefactor(ptr noundef %0) #0 {
  %2 = alloca ptr, align 8
  %3 = alloca ptr, align 8
  %4 = alloca ptr, align 8
  %5 = alloca ptr, align 8
  %6 = alloca %struct.Dar_RefPar_t_, align 4
  %7 = alloca ptr, align 8
  store ptr %0, ptr %2, align 8, !tbaa !3
  call void @llvm.lifetime.start.p0(i64 8, ptr %3) #10
  call void @llvm.lifetime.start.p0(i64 8, ptr %4) #10
  call void @llvm.lifetime.start.p0(i64 8, ptr %5) #10
  call void @llvm.lifetime.start.p0(i64 32, ptr %6) #10
  call void @llvm.lifetime.start.p0(i64 8, ptr %7) #10
  store ptr %6, ptr %7, align 8, !tbaa !36
  %8 = load ptr, ptr %7, align 8, !tbaa !36
  call void @Dar_ManDefaultRefParams(ptr noundef %8)
  %9 = load ptr, ptr %7, align 8, !tbaa !36
  %10 = getelementptr inbounds nuw %struct.Dar_RefPar_t_, ptr %9, i32 0, i32 5
  store i32 1, ptr %10, align 4, !tbaa !38
  %11 = load ptr, ptr %2, align 8, !tbaa !3
  %12 = call ptr @Gia_ManToAig(ptr noundef %11, i32 noundef 0)
  store ptr %12, ptr %4, align 8, !tbaa !8
  %13 = load ptr, ptr %4, align 8, !tbaa !8
  %14 = load ptr, ptr %7, align 8, !tbaa !36
  %15 = call i32 @Dar_ManRefactor(ptr noundef %13, ptr noundef %14)
  %16 = load ptr, ptr %4, align 8, !tbaa !8
  store ptr %16, ptr %5, align 8, !tbaa !8
  %17 = call ptr @Aig_ManDupDfs(ptr noundef %16)
  store ptr %17, ptr %4, align 8, !tbaa !8
  %18 = load ptr, ptr %5, align 8, !tbaa !8
  call void @Aig_ManStop(ptr noundef %18)
  %19 = load ptr, ptr %4, align 8, !tbaa !8
  %20 = call ptr @Gia_ManFromAig(ptr noundef %19)
  store ptr %20, ptr %3, align 8, !tbaa !3
  %21 = load ptr, ptr %4, align 8, !tbaa !8
  call void @Aig_ManStop(ptr noundef %21)
  %22 = load ptr, ptr %3, align 8, !tbaa !3
  call void @llvm.lifetime.end.p0(i64 8, ptr %7) #10
  call void @llvm.lifetime.end.p0(i64 32, ptr %6) #10
  call void @llvm.lifetime.end.p0(i64 8, ptr %5) #10
  call void @llvm.lifetime.end.p0(i64 8, ptr %4) #10
  call void @llvm.lifetime.end.p0(i64 8, ptr %3) #10
  ret ptr %22
}

; Function Attrs: inlinehint nounwind uwtable
define internal i32 @Gia_ManAndNum(ptr noundef %0) #4 {
  %2 = alloca ptr, align 8
  store ptr %0, ptr %2, align 8, !tbaa !3
  %3 = load ptr, ptr %2, align 8, !tbaa !3
  %4 = getelementptr inbounds nuw %struct.Gia_Man_t_, ptr %3, i32 0, i32 4
  %5 = load i32, ptr %4, align 8, !tbaa !56
  %6 = load ptr, ptr %2, align 8, !tbaa !3
  %7 = getelementptr inbounds nuw %struct.Gia_Man_t_, ptr %6, i32 0, i32 11
  %8 = load ptr, ptr %7, align 8, !tbaa !73
  %9 = call i32 @Vec_IntSize(ptr noundef %8)
  %10 = sub nsw i32 %5, %9
  %11 = load ptr, ptr %2, align 8, !tbaa !3
  %12 = getelementptr inbounds nuw %struct.Gia_Man_t_, ptr %11, i32 0, i32 12
  %13 = load ptr, ptr %12, align 8, !tbaa !74
  %14 = call i32 @Vec_IntSize(ptr noundef %13)
  %15 = sub nsw i32 %10, %14
  %16 = sub nsw i32 %15, 1
  ret i32 %16
}

; Function Attrs: nounwind uwtable
define ptr @Gia_ManTranStochOpt1(ptr noundef %0, ptr noundef %1) #0 {
  %3 = alloca ptr, align 8
  %4 = alloca ptr, align 8
  %5 = alloca ptr, align 8
  %6 = alloca ptr, align 8
  %7 = alloca i32, align 4
  %8 = alloca i32, align 4
  store ptr %0, ptr %3, align 8, !tbaa !40
  store ptr %1, ptr %4, align 8, !tbaa !3
  call void @llvm.lifetime.start.p0(i64 8, ptr %5) #10
  call void @llvm.lifetime.start.p0(i64 8, ptr %6) #10
  call void @llvm.lifetime.start.p0(i64 4, ptr %7) #10
  store i32 0, ptr %7, align 4, !tbaa !45
  call void @llvm.lifetime.start.p0(i64 4, ptr %8) #10
  %9 = load ptr, ptr %4, align 8, !tbaa !3
  %10 = call ptr @Gia_ManDup(ptr noundef %9)
  store ptr %10, ptr %5, align 8, !tbaa !3
  br label %11

11:                                               ; preds = %116, %2
  %12 = load ptr, ptr %5, align 8, !tbaa !3
  %13 = call i32 @Gia_ManAndNum(ptr noundef %12)
  store i32 %13, ptr %8, align 4, !tbaa !45
  %14 = load ptr, ptr %3, align 8, !tbaa !40
  %15 = getelementptr inbounds nuw %struct.Gia_ManTranStochParam, ptr %14, i32 0, i32 10
  %16 = load i32, ptr %15, align 4, !tbaa !46
  %17 = icmp ne i32 %16, 0
  br i1 %17, label %18, label %51

18:                                               ; preds = %11
  %19 = load ptr, ptr %5, align 8, !tbaa !3
  %20 = load ptr, ptr %3, align 8, !tbaa !40
  %21 = getelementptr inbounds nuw %struct.Gia_ManTranStochParam, ptr %20, i32 0, i32 6
  %22 = load i32, ptr %21, align 4, !tbaa !47
  %23 = icmp ne i32 %22, 0
  %24 = select i1 %23, i32 8, i32 7
  %25 = load ptr, ptr %3, align 8, !tbaa !40
  %26 = getelementptr inbounds nuw %struct.Gia_ManTranStochParam, ptr %25, i32 0, i32 5
  %27 = load i32, ptr %26, align 8, !tbaa !48
  %28 = load ptr, ptr %3, align 8, !tbaa !40
  %29 = getelementptr inbounds nuw %struct.Gia_ManTranStochParam, ptr %28, i32 0, i32 1
  %30 = load i32, ptr %29, align 8, !tbaa !49
  %31 = add nsw i32 %30, 1
  store i32 %31, ptr %29, align 8, !tbaa !49
  %32 = load ptr, ptr %3, align 8, !tbaa !40
  %33 = getelementptr inbounds nuw %struct.Gia_ManTranStochParam, ptr %32, i32 0, i32 12
  %34 = load ptr, ptr %33, align 8, !tbaa !50
  %35 = load ptr, ptr %3, align 8, !tbaa !40
  %36 = getelementptr inbounds nuw %struct.Gia_ManTranStochParam, ptr %35, i32 0, i32 11
  %37 = load i32, ptr %36, align 8, !tbaa !51
  %38 = load ptr, ptr %3, align 8, !tbaa !40
  %39 = getelementptr inbounds nuw %struct.Gia_ManTranStochParam, ptr %38, i32 0, i32 13
  %40 = load i32, ptr %39, align 8, !tbaa !52
  %41 = icmp sgt i32 %40, 0
  br i1 %41, label %42, label %47

42:                                               ; preds = %18
  %43 = load ptr, ptr %3, align 8, !tbaa !40
  %44 = getelementptr inbounds nuw %struct.Gia_ManTranStochParam, ptr %43, i32 0, i32 13
  %45 = load i32, ptr %44, align 8, !tbaa !52
  %46 = sub nsw i32 %45, 1
  br label %48

47:                                               ; preds = %18
  br label %48

48:                                               ; preds = %47, %42
  %49 = phi i32 [ %46, %42 ], [ 0, %47 ]
  %50 = call ptr @Gia_ManTransductionTt(ptr noundef %19, i32 noundef %24, i32 noundef %27, i32 noundef %30, i32 noundef 0, i32 noundef 0, i32 noundef 0, i32 noundef 0, ptr noundef %34, i32 noundef %37, i32 noundef %49)
  store ptr %50, ptr %6, align 8, !tbaa !3
  br label %84

51:                                               ; preds = %11
  %52 = load ptr, ptr %5, align 8, !tbaa !3
  %53 = load ptr, ptr %3, align 8, !tbaa !40
  %54 = getelementptr inbounds nuw %struct.Gia_ManTranStochParam, ptr %53, i32 0, i32 6
  %55 = load i32, ptr %54, align 4, !tbaa !47
  %56 = icmp ne i32 %55, 0
  %57 = select i1 %56, i32 8, i32 7
  %58 = load ptr, ptr %3, align 8, !tbaa !40
  %59 = getelementptr inbounds nuw %struct.Gia_ManTranStochParam, ptr %58, i32 0, i32 5
  %60 = load i32, ptr %59, align 8, !tbaa !48
  %61 = load ptr, ptr %3, align 8, !tbaa !40
  %62 = getelementptr inbounds nuw %struct.Gia_ManTranStochParam, ptr %61, i32 0, i32 1
  %63 = load i32, ptr %62, align 8, !tbaa !49
  %64 = add nsw i32 %63, 1
  store i32 %64, ptr %62, align 8, !tbaa !49
  %65 = load ptr, ptr %3, align 8, !tbaa !40
  %66 = getelementptr inbounds nuw %struct.Gia_ManTranStochParam, ptr %65, i32 0, i32 12
  %67 = load ptr, ptr %66, align 8, !tbaa !50
  %68 = load ptr, ptr %3, align 8, !tbaa !40
  %69 = getelementptr inbounds nuw %struct.Gia_ManTranStochParam, ptr %68, i32 0, i32 11
  %70 = load i32, ptr %69, align 8, !tbaa !51
  %71 = load ptr, ptr %3, align 8, !tbaa !40
  %72 = getelementptr inbounds nuw %struct.Gia_ManTranStochParam, ptr %71, i32 0, i32 13
  %73 = load i32, ptr %72, align 8, !tbaa !52
  %74 = icmp sgt i32 %73, 0
  br i1 %74, label %75, label %80

75:                                               ; preds = %51
  %76 = load ptr, ptr %3, align 8, !tbaa !40
  %77 = getelementptr inbounds nuw %struct.Gia_ManTranStochParam, ptr %76, i32 0, i32 13
  %78 = load i32, ptr %77, align 8, !tbaa !52
  %79 = sub nsw i32 %78, 1
  br label %81

80:                                               ; preds = %51
  br label %81

81:                                               ; preds = %80, %75
  %82 = phi i32 [ %79, %75 ], [ 0, %80 ]
  %83 = call ptr @Gia_ManTransductionBdd(ptr noundef %52, i32 noundef %57, i32 noundef %60, i32 noundef %63, i32 noundef 0, i32 noundef 0, i32 noundef 0, i32 noundef 0, ptr noundef %67, i32 noundef %70, i32 noundef %82)
  store ptr %83, ptr %6, align 8, !tbaa !3
  br label %84

84:                                               ; preds = %81, %48
  %85 = load ptr, ptr %5, align 8, !tbaa !3
  call void @Gia_ManStop(ptr noundef %85)
  %86 = load ptr, ptr %6, align 8, !tbaa !3
  store ptr %86, ptr %5, align 8, !tbaa !3
  %87 = load ptr, ptr %3, align 8, !tbaa !40
  %88 = getelementptr inbounds nuw %struct.Gia_ManTranStochParam, ptr %87, i32 0, i32 9
  %89 = load i32, ptr %88, align 8, !tbaa !53
  %90 = icmp ne i32 %89, 0
  br i1 %90, label %91, label %96

91:                                               ; preds = %84
  %92 = load ptr, ptr %5, align 8, !tbaa !3
  %93 = call ptr @Gia_ManTranStochRefactor(ptr noundef %92)
  store ptr %93, ptr %6, align 8, !tbaa !3
  %94 = load ptr, ptr %5, align 8, !tbaa !3
  call void @Gia_ManStop(ptr noundef %94)
  %95 = load ptr, ptr %6, align 8, !tbaa !3
  store ptr %95, ptr %5, align 8, !tbaa !3
  br label %103

96:                                               ; preds = %84
  %97 = load ptr, ptr %3, align 8, !tbaa !40
  call void @Gia_ManTranStochLock(ptr noundef %97)
  %98 = load ptr, ptr %5, align 8, !tbaa !3
  %99 = call ptr @Gia_ManCompress2(ptr noundef %98, i32 noundef 1, i32 noundef 0)
  store ptr %99, ptr %6, align 8, !tbaa !3
  %100 = load ptr, ptr %3, align 8, !tbaa !40
  call void @Gia_ManTranStochUnlock(ptr noundef %100)
  %101 = load ptr, ptr %5, align 8, !tbaa !3
  call void @Gia_ManStop(ptr noundef %101)
  %102 = load ptr, ptr %6, align 8, !tbaa !3
  store ptr %102, ptr %5, align 8, !tbaa !3
  br label %103

103:                                              ; preds = %96, %91
  %104 = load ptr, ptr %3, align 8, !tbaa !40
  %105 = getelementptr inbounds nuw %struct.Gia_ManTranStochParam, ptr %104, i32 0, i32 13
  %106 = load i32, ptr %105, align 8, !tbaa !52
  %107 = icmp ne i32 %106, 0
  br i1 %107, label %108, label %113

108:                                              ; preds = %103
  %109 = load i32, ptr %7, align 4, !tbaa !45
  %110 = load ptr, ptr %5, align 8, !tbaa !3
  %111 = call i32 @Gia_ManAndNum(ptr noundef %110)
  %112 = call i32 (ptr, ...) @printf(ptr noundef @.str, i32 noundef %109, i32 noundef %111)
  br label %113

113:                                              ; preds = %108, %103
  %114 = load i32, ptr %7, align 4, !tbaa !45
  %115 = add nsw i32 %114, 1
  store i32 %115, ptr %7, align 4, !tbaa !45
  br label %116

116:                                              ; preds = %113
  %117 = load i32, ptr %8, align 4, !tbaa !45
  %118 = load ptr, ptr %5, align 8, !tbaa !3
  %119 = call i32 @Gia_ManAndNum(ptr noundef %118)
  %120 = icmp sgt i32 %117, %119
  br i1 %120, label %11, label %121, !llvm.loop !54

121:                                              ; preds = %116
  %122 = load ptr, ptr %5, align 8, !tbaa !3
  call void @llvm.lifetime.end.p0(i64 4, ptr %8) #10
  call void @llvm.lifetime.end.p0(i64 4, ptr %7) #10
  call void @llvm.lifetime.end.p0(i64 8, ptr %6) #10
  call void @llvm.lifetime.end.p0(i64 8, ptr %5) #10
  ret ptr %122
}