; Function Attrs: nounwind uwtable
define ptr @Gia_ManTranStochOpt1(ptr noundef captures(none) %0, ptr noundef %1) local_unnamed_addr #0 {
  %3 = alloca %struct.Dar_RefPar_t_, align 4
  %4 = tail call ptr @Gia_ManDup(ptr noundef %1) #14
  %5 = getelementptr inbounds nuw i8, ptr %0, i64 44
  %6 = getelementptr inbounds nuw i8, ptr %0, i64 28
  %7 = getelementptr inbounds nuw i8, ptr %0, i64 24
  %8 = getelementptr inbounds nuw i8, ptr %0, i64 8
  %9 = getelementptr inbounds nuw i8, ptr %0, i64 56
  %10 = getelementptr inbounds nuw i8, ptr %0, i64 48
  %11 = getelementptr inbounds nuw i8, ptr %0, i64 64
  %12 = getelementptr inbounds nuw i8, ptr %0, i64 40
  %13 = getelementptr inbounds nuw i8, ptr %3, i64 20
  %14 = getelementptr inbounds nuw i8, ptr %0, i64 88
  %15 = getelementptr inbounds nuw i8, ptr %0, i64 96
  %.phi.trans.insert = getelementptr inbounds nuw i8, ptr %4, i64 24
  %.pre = load i32, ptr %.phi.trans.insert, align 8, !tbaa !30
  %.phi.trans.insert51 = getelementptr inbounds nuw i8, ptr %4, i64 64
  %.pre52 = load ptr, ptr %.phi.trans.insert51, align 8, !tbaa !47
  %.phi.trans.insert53 = getelementptr i8, ptr %.pre52, i64 4
  %.val.i.pre = load i32, ptr %.phi.trans.insert53, align 4, !tbaa !48
  %.phi.trans.insert55 = getelementptr inbounds nuw i8, ptr %4, i64 72
  %.pre56 = load ptr, ptr %.phi.trans.insert55, align 8, !tbaa !49
  %.phi.trans.insert57 = getelementptr i8, ptr %.pre56, i64 4
  %.val3.i.pre = load i32, ptr %.phi.trans.insert57, align 4, !tbaa !48
  br label %16

16:                                               ; preds = %63, %2
  %.val3.i = phi i32 [ %.val3.i.pre, %2 ], [ %.val3.i49, %63 ]
  %.val.i = phi i32 [ %.val.i.pre, %2 ], [ %.val.i48, %63 ]
  %17 = phi i32 [ %.pre, %2 ], [ %66, %63 ]
  %.036 = phi i32 [ 0, %2 ], [ %64, %63 ]
  %.0 = phi ptr [ %4, %2 ], [ %.1, %63 ]
  %18 = load i32, ptr %5, align 4, !tbaa !50
  %.not = icmp eq i32 %18, 0
  %19 = load i32, ptr %6, align 4, !tbaa !51
  %.not40 = icmp eq i32 %19, 0
  %20 = select i1 %.not40, i32 7, i32 8
  %21 = load i32, ptr %7, align 8, !tbaa !52
  %22 = load i32, ptr %8, align 8, !tbaa !53
  %23 = add nsw i32 %22, 1
  store i32 %23, ptr %8, align 8, !tbaa !53
  %24 = load ptr, ptr %9, align 8, !tbaa !54
  %25 = load i32, ptr %10, align 8, !tbaa !55
  %26 = load i32, ptr %11, align 8, !tbaa !56
  %27 = call i32 @llvm.smax.i32(i32 %26, i32 1)
  %spec.select44 = add nsw i32 %27, -1
  br i1 %.not, label %30, label %28

28:                                               ; preds = %16
  %29 = call ptr @Gia_ManTransductionTt(ptr noundef nonnull %.0, i32 noundef %20, i32 noundef %21, i32 noundef %22, i32 noundef 0, i32 noundef 0, i32 noundef 0, i32 noundef 0, ptr noundef %24, i32 noundef %25, i32 noundef %spec.select44) #14
  br label %32

30:                                               ; preds = %16
  %31 = call ptr @Gia_ManTransductionBdd(ptr noundef nonnull %.0, i32 noundef %20, i32 noundef %21, i32 noundef %22, i32 noundef 0, i32 noundef 0, i32 noundef 0, i32 noundef 0, ptr noundef %24, i32 noundef %25, i32 noundef %spec.select44) #14
  br label %32

32:                                               ; preds = %30, %28
  %.037 = phi ptr [ %29, %28 ], [ %31, %30 ]
  call void @Gia_ManStop(ptr noundef nonnull %.0) #14
  %33 = load i32, ptr %12, align 8, !tbaa !57
  %.not42 = icmp eq i32 %33, 0
  br i1 %.not42, label %39, label %34

34:                                               ; preds = %32
  call void @llvm.lifetime.start.p0(i64 32, ptr nonnull %3) #14
  call void @Dar_ManDefaultRefParams(ptr noundef nonnull %3) #14
  store i32 1, ptr %13, align 4, !tbaa !24
  %35 = call ptr @Gia_ManToAig(ptr noundef %.037, i32 noundef 0) #14
  %36 = call i32 @Dar_ManRefactor(ptr noundef %35, ptr noundef nonnull %3) #14
  %37 = call ptr @Aig_ManDupDfs(ptr noundef %35) #14
  call void @Aig_ManStop(ptr noundef %35) #14
  %38 = call ptr @Gia_ManFromAig(ptr noundef %37) #14
  call void @Aig_ManStop(ptr noundef %37) #14
  call void @llvm.lifetime.end.p0(i64 32, ptr nonnull %3) #14
  br label %Gia_ManTranStochUnlock.exit

39:                                               ; preds = %32
  %40 = load i32, ptr %14, align 8, !tbaa !26
  %.not.i = icmp eq i32 %40, 0
  br i1 %.not.i, label %Gia_ManTranStochLock.exit, label %41

41:                                               ; preds = %39
  %42 = load ptr, ptr %15, align 8, !tbaa !29
  %43 = call i32 @pthread_mutex_lock(ptr noundef %42) #14
  br label %Gia_ManTranStochLock.exit

Gia_ManTranStochLock.exit:                        ; preds = %39, %41
  %44 = call ptr @Gia_ManCompress2(ptr noundef %.037, i32 noundef 1, i32 noundef 0) #14
  %45 = load i32, ptr %14, align 8, !tbaa !26
  %.not.i45 = icmp eq i32 %45, 0
  br i1 %.not.i45, label %Gia_ManTranStochUnlock.exit, label %46

46:                                               ; preds = %Gia_ManTranStochLock.exit
  %47 = load ptr, ptr %15, align 8, !tbaa !29
  %48 = call i32 @pthread_mutex_unlock(ptr noundef %47) #14
  br label %Gia_ManTranStochUnlock.exit

Gia_ManTranStochUnlock.exit:                      ; preds = %46, %Gia_ManTranStochLock.exit, %34
  %.1 = phi ptr [ %38, %34 ], [ %44, %Gia_ManTranStochLock.exit ], [ %44, %46 ]
  call void @Gia_ManStop(ptr noundef %.037) #14
  %49 = load i32, ptr %11, align 8, !tbaa !56
  %.not43 = icmp eq i32 %49, 0
  br i1 %.not43, label %63, label %50

50:                                               ; preds = %Gia_ManTranStochUnlock.exit
  %51 = getelementptr inbounds nuw i8, ptr %.1, i64 24
  %52 = load i32, ptr %51, align 8, !tbaa !30
  %53 = getelementptr inbounds nuw i8, ptr %.1, i64 64
  %54 = load ptr, ptr %53, align 8, !tbaa !47
  %55 = getelementptr i8, ptr %54, i64 4
  %.val.i46 = load i32, ptr %55, align 4, !tbaa !48
  %56 = getelementptr inbounds nuw i8, ptr %.1, i64 72
  %57 = load ptr, ptr %56, align 8, !tbaa !49
  %58 = getelementptr i8, ptr %57, i64 4
  %.val3.i47 = load i32, ptr %58, align 4, !tbaa !48
  %59 = add i32 %.val3.i47, %.val.i46
  %60 = xor i32 %59, -1
  %61 = add i32 %52, %60
  %62 = call i32 (ptr, ...) @printf(ptr noundef nonnull dereferenceable(1) @.str, i32 noundef %.036, i32 noundef %61)
  br label %63

63:                                               ; preds = %50, %Gia_ManTranStochUnlock.exit
  %64 = add nuw nsw i32 %.036, 1
  %65 = getelementptr inbounds nuw i8, ptr %.1, i64 24
  %66 = load i32, ptr %65, align 8, !tbaa !30
  %67 = getelementptr inbounds nuw i8, ptr %.1, i64 64
  %68 = load ptr, ptr %67, align 8, !tbaa !47
  %69 = getelementptr i8, ptr %68, i64 4
  %.val.i48 = load i32, ptr %69, align 4, !tbaa !48
  %70 = getelementptr inbounds nuw i8, ptr %.1, i64 72
  %71 = load ptr, ptr %70, align 8, !tbaa !49
  %72 = getelementptr i8, ptr %71, i64 4
  %.val3.i49 = load i32, ptr %72, align 4, !tbaa !48
  %73 = sub i32 %.val.i, %17
  %74 = add i32 %73, %.val3.i
  %75 = sub i32 %.val.i48, %66
  %76 = add i32 %75, %.val3.i49
  %77 = icmp slt i32 %74, %76
  br i1 %77, label %16, label %78, !llvm.loop !58

78:                                               ; preds = %63
  ret ptr %.1
}